; Function Attrs: mustprogress nofree norecurse nosync nounwind willreturn memory(readwrite, inaccessiblemem: none) uwtable
define dso_local void @_ZN4Luau6Tarjan9visitEdgeEii(ptr noundef nonnull readonly align 8 captures(none) dereferenceable(224) %0, i32 noundef %1, i32 noundef %2) local_unnamed_addr #5 align 2 {
  %4 = getelementptr inbounds nuw i8, ptr %0, i64 88
  %5 = sext i32 %1 to i64
  %6 = load ptr, ptr %4, align 8, !tbaa !35
  %7 = getelementptr inbounds nuw %"struct.Luau::TarjanNode", ptr %6, i64 %5, i32 3
  %8 = load i8, ptr %7, align 1, !tbaa !164, !range !117, !noundef !118
  %9 = trunc nuw i8 %8 to i1
  br i1 %9, label %10, label %13

10:                                               ; preds = %3
  %11 = sext i32 %2 to i64
  %12 = getelementptr inbounds nuw %"struct.Luau::TarjanNode", ptr %6, i64 %11, i32 3
  store i8 1, ptr %12, align 1, !tbaa !164
  br label %13

13:                                               ; preds = %10, %3
  ret void
}